(dp0
S'MONITOR_NSCREENS'
p1
I1
sS'MONITOR_WIDTH'
p2
F40.0
sS'EVENT_TRIGLOG'
p3
S'log/triggerlog.log'
p4
sS'MONITOR_DEGS_WIDTHBASE'
p5
I25
sS'MONITOR_FLIPVERTICAL'
p6
I00
sS'GNGSPEED'
p7
F1.0
sS'BUTTONS'
p8
(lp9
S'lctrl'
p10
aS'rctrl'
p11
asS'MONITOR_USEDEGS'
p12
I01
sS'MONITOR_ALLOWGUI'
p13
I01
sS'EVENT_printToTerminal'
p14
I01
sS'MONITOR_DISPLAYONSCREEN'
p15
I1
sS'EVENT_sendParallel'
p16
I01
sS'VIS_checkerSpeedMultiplier'
p17
F1.0
sS'PORT'
p18
I6050
sS'MONITOR_DEGS_HEIGHTBASE'
p19
I20
sS'EYESCLOSED_TIME'
p20
F25.0
sS'MONITOR_HEIGHT'
p21
F30.0
sS'MONITOR_FULLSCR'
p22
I00
sS'VIS_SHOWOPPOSITE'
p23
I01
sS'VIS_radialFreq'
p24
I6
sS'LPT_TRIGGER_WAIT'
p25
F0.005
sS'MONITOR_DISTANCE'
p26
F70.0
sS'EVENT_sendTcpIp'
p27
I01
sS'tooSoonTime'
p28
F0.0
sS'LOGFILEBASE'
p29
S'efl'
p30
sS'VIS_angleFreq'
p31
I6
sS'GNG_ARROWGOESRED'
p32
I00
sS'MONITOR_GAMMA'
p33
F1.0
sS'MONITOR_PIXWIDTH'
p34
I1440
sS'EVENT_LPTTrigWaitTime'
p35
F0.005
sS'EVENT_destip'
p36
S'127.0.0.1'
p37
sS'EVENT_sendLogFile'
p38
I01
sS'DO_GNG'
p39
I01
sS'EVENT_destport'
p40
I6050
sS'INSTR'
p41
S'Remember, respond as FAST as you can once you see the arrow.\n\nHowever, if you hear a beep, your task is to STOP yourself from pressing.\n\nStopping and Going are equally important.'
p42
sS'MONITOR_PIXHEIGHT'
p43
I900
sS'AUDIOTONE_ERROR_COMMISSION'
p44
I00
sS'DO_AUDIO'
p45
I01
sS'EVENT_printToTerminalAllowed'
p46
(lp47
I0
aI1
aI2
aI3
aI4
aI5
aI6
aI7
aI8
aI9
aI10
aI11
aI12
aI13
aI14
aI15
aI16
aI17
aI18
aI19
aI20
aI21
aI22
aI23
aI24
aI25
aI26
aI27
aI28
aI29
aI30
aI31
aI32
aI33
aI34
aI35
aI36
aI37
aI38
aI39
aI40
aI41
aI42
aI43
aI44
aI45
aI46
aI47
aI48
aI49
aI50
aI51
aI52
aI53
aI54
aI55
aI56
aI57
aI58
aI59
aI60
aI61
aI62
aI63
aI64
aI65
aI66
aI67
aI68
aI69
aI70
aI71
aI72
aI73
aI74
aI75
aI76
aI77
aI78
aI79
aI80
aI81
aI82
aI83
aI84
aI85
aI86
aI87
aI88
aI89
aI90
aI91
aI92
aI93
aI94
aI95
aI96
aI97
aI98
aI99
aI100
aI101
aI102
aI103
aI104
aI105
aI106
aI107
aI108
aI109
aI110
aI111
aI112
aI113
aI114
aI115
aI116
aI117
aI118
aI119
aI120
aI121
aI122
aI123
aI124
aI125
aI126
aI127
aI128
aI129
aI130
aI131
aI132
aI133
aI134
aI135
aI136
aI137
aI138
aI139
aI140
aI141
aI142
aI143
aI144
aI145
aI146
aI147
aI148
aI149
aI150
aI151
aI152
aI153
aI154
aI155
aI156
aI157
aI158
aI159
aI160
aI161
aI162
aI163
aI164
aI165
aI166
aI167
aI168
aI169
aI170
aI171
aI172
aI173
aI174
aI175
aI176
aI177
aI178
aI179
aI180
aI181
aI182
aI183
aI184
aI185
aI186
aI187
aI188
aI189
aI190
aI191
aI192
aI193
aI194
aI195
aI196
aI197
aI198
aI199
aI200
aI201
aI202
aI203
aI204
aI205
aI206
aI207
aI208
aI209
aI210
aI211
aI212
aI213
aI214
aI215
aI216
aI217
aI218
aI219
aI220
aI221
aI222
aI223
aI224
aI225
aI226
aI227
aI228
aI229
aI230
aI231
aI232
aI233
aI234
aI235
aI236
aI237
aI238
aI239
aI240
aI241
aI242
aI243
aI244
aI245
aI246
aI247
aI248
aI249
aI250
aI251
aI252
aI253
aI254
aI255
asS'EVENT_LPTAddress'
p48
I888
sS'DO_VISUAL'
p49
I01
sS'RECORDFRAMEINTERVALS'
p50
I01
sS'LOGDIR'
p51
S'log'
p52
sS'VIS_checkerSize'
p53
F1.5
sS'AUDIOTONE_STOP'
p54
I01
sS'IPADDRESS'
p55
S'localhost'
p56
sS'MONITOR_FPS'
p57
F60.0
sS'MONITOR_FLIPHORIZONTAL'
p58
I00
s.